; ModuleID = '51/488.c'
source_filename = "51/488.c"
target datalayout = "e-m:e-p270:32:32-p271:32:32-p272:64:64-i64:64-f80:128-n8:16:32:64-S128"
target triple = "x86_64-pc-linux-gnu"

@.str = private unnamed_addr constant [6 x i8] c"%d %s\00", align 1
@.str.1 = private unnamed_addr constant [3 x i8] c"NO\00", align 1
@.str.2 = private unnamed_addr constant [4 x i8] c"%d\0A\00", align 1
@.str.3 = private unnamed_addr constant [3 x i8] c"%c\00", align 1
@.str.4 = private unnamed_addr constant [2 x i8] c"\0A\00", align 1

; Function Attrs: noinline nounwind uwtable
define dso_local i32 @main() #0 {
  %1 = alloca i32, align 4
  %2 = alloca i32, align 4
  %3 = alloca i32, align 4
  %4 = alloca i32, align 4
  %5 = alloca i32, align 4
  %6 = alloca i32, align 4
  %7 = alloca i32, align 4
  %8 = alloca i32, align 4
  %9 = alloca [500 x i32], align 16
  %10 = alloca [502 x i8], align 16
  store i32 0, i32* %1, align 4
  store i32 0, i32* %2, align 4
  %11 = bitcast [500 x i32]* %9 to i8*
  call void @llvm.memset.p0i8.i64(i8* align 16 %11, i8 0, i64 2000, i1 false)
  %12 = bitcast i8* %11 to <{ i32, [499 x i32] }>*
  %13 = getelementptr inbounds <{ i32, [499 x i32] }>, <{ i32, [499 x i32] }>* %12, i32 0, i32 0
  store i32 1, i32* %13, align 16
  %14 = getelementptr inbounds [502 x i8], [502 x i8]* %10, i64 0, i64 0
  %15 = call i32 (i8*, ...) @__isoc99_scanf(i8* getelementptr inbounds ([6 x i8], [6 x i8]* @.str, i64 0, i64 0), i32* %3, i8* %14)
  %16 = getelementptr inbounds [502 x i8], [502 x i8]* %10, i64 0, i64 0
  %17 = call i64 @strlen(i8* %16) #4
  %18 = trunc i64 %17 to i32
  store i32 %18, i32* %5, align 4
  %19 = load i32, i32* %5, align 4
  %20 = load i32, i32* %3, align 4
  %21 = sub nsw i32 %19, %20
  %22 = add nsw i32 %21, 1
  store i32 %22, i32* %4, align 4
  store i32 0, i32* %6, align 4
  br label %23

23:                                               ; preds = %85, %0
  %24 = load i32, i32* %6, align 4
  %25 = load i32, i32* %4, align 4
  %26 = icmp slt i32 %24, %25
  %27 = zext i1 %26 to i32
  %28 = load i32, i32* %6, align 4
  %29 = sext i32 %28 to i64
  %30 = getelementptr inbounds [502 x i8], [502 x i8]* %10, i64 0, i64 %29
  %31 = load i8, i8* %30, align 1
  %32 = sext i8 %31 to i32
  %33 = icmp ne i32 %32, 0
  br i1 %33, label %34, label %88

34:                                               ; preds = %23
  %35 = load i32, i32* %6, align 4
  %36 = sext i32 %35 to i64
  %37 = getelementptr inbounds [500 x i32], [500 x i32]* %9, i64 0, i64 %36
  store i32 1, i32* %37, align 4
  %38 = load i32, i32* %6, align 4
  %39 = add nsw i32 %38, 1
  store i32 %39, i32* %7, align 4
  br label %40

40:                                               ; preds = %81, %34
  %41 = load i32, i32* %7, align 4
  %42 = load i32, i32* %4, align 4
  %43 = icmp slt i32 %41, %42
  br i1 %43, label %44, label %84

44:                                               ; preds = %40
  store i32 0, i32* %8, align 4
  br label %45

45:                                               ; preds = %69, %44
  %46 = load i32, i32* %8, align 4
  %47 = load i32, i32* %3, align 4
  %48 = icmp slt i32 %46, %47
  br i1 %48, label %49, label %70

49:                                               ; preds = %45
  %50 = load i32, i32* %6, align 4
  %51 = load i32, i32* %8, align 4
  %52 = add nsw i32 %50, %51
  %53 = sext i32 %52 to i64
  %54 = getelementptr inbounds [502 x i8], [502 x i8]* %10, i64 0, i64 %53
  %55 = load i8, i8* %54, align 1
  %56 = sext i8 %55 to i32
  %57 = load i32, i32* %7, align 4
  %58 = load i32, i32* %8, align 4
  %59 = add nsw i32 %57, %58
  %60 = sext i32 %59 to i64
  %61 = getelementptr inbounds [502 x i8], [502 x i8]* %10, i64 0, i64 %60
  %62 = load i8, i8* %61, align 1
  %63 = sext i8 %62 to i32
  %64 = icmp eq i32 %56, %63
  br i1 %64, label %65, label %68

65:                                               ; preds = %49
  %66 = load i32, i32* %8, align 4
  %67 = add nsw i32 %66, 1
  store i32 %67, i32* %8, align 4
  br label %69

68:                                               ; preds = %49
  br label %70

69:                                               ; preds = %65
  br label %45

70:                                               ; preds = %68, %45
  %71 = load i32, i32* %8, align 4
  %72 = load i32, i32* %3, align 4
  %73 = icmp eq i32 %71, %72
  br i1 %73, label %74, label %80

74:                                               ; preds = %70
  %75 = load i32, i32* %6, align 4
  %76 = sext i32 %75 to i64
  %77 = getelementptr inbounds [500 x i32], [500 x i32]* %9, i64 0, i64 %76
  %78 = load i32, i32* %77, align 4
  %79 = add nsw i32 %78, 1
  store i32 %79, i32* %77, align 4
  br label %80

80:                                               ; preds = %74, %70
  br label %81

81:                                               ; preds = %80
  %82 = load i32, i32* %7, align 4
  %83 = add nsw i32 %82, 1
  store i32 %83, i32* %7, align 4
  br label %40

84:                                               ; preds = %40
  br label %85

85:                                               ; preds = %84
  %86 = load i32, i32* %6, align 4
  %87 = add nsw i32 %86, 1
  store i32 %87, i32* %6, align 4
  br label %23

88:                                               ; preds = %23
  store i32 0, i32* %6, align 4
  br label %89

89:                                               ; preds = %108, %88
  %90 = load i32, i32* %6, align 4
  %91 = load i32, i32* %4, align 4
  %92 = icmp slt i32 %90, %91
  br i1 %92, label %93, label %111

93:                                               ; preds = %89
  %94 = load i32, i32* %2, align 4
  %95 = load i32, i32* %6, align 4
  %96 = sext i32 %95 to i64
  %97 = getelementptr inbounds [500 x i32], [500 x i32]* %9, i64 0, i64 %96
  %98 = load i32, i32* %97, align 4
  %99 = icmp sle i32 %94, %98
  br i1 %99, label %100, label %105

100:                                              ; preds = %93
  %101 = load i32, i32* %6, align 4
  %102 = sext i32 %101 to i64
  %103 = getelementptr inbounds [500 x i32], [500 x i32]* %9, i64 0, i64 %102
  %104 = load i32, i32* %103, align 4
  store i32 %104, i32* %2, align 4
  br label %107

105:                                              ; preds = %93
  %106 = load i32, i32* %2, align 4
  store i32 %106, i32* %2, align 4
  br label %107

107:                                              ; preds = %105, %100
  br label %108

108:                                              ; preds = %107
  %109 = load i32, i32* %6, align 4
  %110 = add nsw i32 %109, 1
  store i32 %110, i32* %6, align 4
  br label %89

111:                                              ; preds = %89
  %112 = load i32, i32* %2, align 4
  %113 = icmp eq i32 %112, 1
  br i1 %113, label %114, label %116

114:                                              ; preds = %111
  %115 = call i32 (i8*, ...) @printf(i8* getelementptr inbounds ([3 x i8], [3 x i8]* @.str.1, i64 0, i64 0))
  br label %154

116:                                              ; preds = %111
  %117 = load i32, i32* %2, align 4
  %118 = call i32 (i8*, ...) @printf(i8* getelementptr inbounds ([4 x i8], [4 x i8]* @.str.2, i64 0, i64 0), i32 %117)
  store i32 0, i32* %6, align 4
  br label %119

119:                                              ; preds = %150, %116
  %120 = load i32, i32* %6, align 4
  %121 = load i32, i32* %4, align 4
  %122 = icmp slt i32 %120, %121
  br i1 %122, label %123, label %153

123:                                              ; preds = %119
  %124 = load i32, i32* %6, align 4
  %125 = sext i32 %124 to i64
  %126 = getelementptr inbounds [500 x i32], [500 x i32]* %9, i64 0, i64 %125
  %127 = load i32, i32* %126, align 4
  %128 = load i32, i32* %2, align 4
  %129 = icmp eq i32 %127, %128
  br i1 %129, label %130, label %148

130:                                              ; preds = %123
  store i32 0, i32* %8, align 4
  br label %131

131:                                              ; preds = %144, %130
  %132 = load i32, i32* %8, align 4
  %133 = load i32, i32* %3, align 4
  %134 = icmp slt i32 %132, %133
  br i1 %134, label %135, label %147

135:                                              ; preds = %131
  %136 = load i32, i32* %6, align 4
  %137 = load i32, i32* %8, align 4
  %138 = add nsw i32 %136, %137
  %139 = sext i32 %138 to i64
  %140 = getelementptr inbounds [502 x i8], [502 x i8]* %10, i64 0, i64 %139
  %141 = load i8, i8* %140, align 1
  %142 = sext i8 %141 to i32
  %143 = call i32 (i8*, ...) @printf(i8* getelementptr inbounds ([3 x i8], [3 x i8]* @.str.3, i64 0, i64 0), i32 %142)
  br label %144

144:                                              ; preds = %135
  %145 = load i32, i32* %8, align 4
  %146 = add nsw i32 %145, 1
  store i32 %146, i32* %8, align 4
  br label %131

147:                                              ; preds = %131
  br label %148

148:                                              ; preds = %147, %123
  %149 = call i32 (i8*, ...) @printf(i8* getelementptr inbounds ([2 x i8], [2 x i8]* @.str.4, i64 0, i64 0))
  br label %150

150:                                              ; preds = %148
  %151 = load i32, i32* %6, align 4
  %152 = add nsw i32 %151, 1
  store i32 %152, i32* %6, align 4
  br label %119

153:                                              ; preds = %119
  br label %154

154:                                              ; preds = %153, %114
  ret i32 0
}

; Function Attrs: argmemonly nounwind willreturn
declare void @llvm.memset.p0i8.i64(i8* nocapture writeonly, i8, i64, i1 immarg) #1

declare dso_local i32 @__isoc99_scanf(i8*, ...) #2

; Function Attrs: nounwind readonly
declare dso_local i64 @strlen(i8*) #3

declare dso_local i32 @printf(i8*, ...) #2


!llvm.module.flags = !{!0}
!llvm.ident = !{!1}

!0 = !{i32 1, !"wchar_size", i32 4}
!1 = !{!"clang version 10.0.0-4ubuntu1 "}
